
AVRASM ver. 2.2.8  C:\Users\jinyc\Documents\Atmel Studio\7.0\LCD_relay_hs\relay_to_LCD_hs_2\main.asm Sun Nov 24 22:14:02 2024

C:\Users\jinyc\Documents\Atmel Studio\7.0\LCD_relay_hs\relay_to_LCD_hs_2\main.asm(2): Including file 'C:/Program Files (x86)\Atmel\Studio\7.0\Packs\atmel\AVR-Dx_DFP\1.10.114\avrasm\inc\avr128db48def.inc'
C:\Users\jinyc\Documents\Atmel Studio\7.0\LCD_relay_hs\relay_to_LCD_hs_2\main.asm(2): Including file 'C:/Program Files (x86)\Atmel\Studio\7.0\Packs\atmel\AVR-Dx_DFP\1.10.114\avrasm\inc\avr128db48def.inc'
                                 
                                 .list
                                 
                                 .dseg
004000                           message: .byte 64
                                 .cseg
                                 
                                 start:
000000 e803                      	ldi r16, low(1667)
000001 9300 0868                 	sts USART3_BAUDL, r16
000003 e006                      	ldi r16, high(1667)
000004 9300 0869                 	sts USART3_BAUDH, r16
                                 
000006 e80b                      	ldi r16, low(139)
000007 9300 0828                 	sts USART1_BAUDL, r16
000009 e000                      	ldi r16, high(139)
00000a 9300 0829                 	sts USART1_BAUDH, r16        
                                 
00000c e003                      	ldi r16, 0x03
00000d 9300 0867                 	sts USART3_CTRLC, r16
00000f 9300 0827                 	sts USART1_CTRLC, r16
                                 
000011 e400                      	ldi r16, 0x40
000012 9300 0866                 	sts USART3_CTRLB, r16
000014 e800                      	ldi r16, 0x80
000015 9300 0826                 	sts USART1_CTRLB, r16
                                 
000017 9a20                      	sbi VPORTB_DIR, 0
000018 9841                      	cbi VPORTC_DIR, 1
                                 
                                 main:
000019 e0c0                      	ldi YL, low(message)
00001a e4d0                      	ldi YH, high(message)
                                 	
                                 	RX_clear:
00001b 9110 0821                 		lds r17, USART1_RXDATAH;
00001d ff17                      		sbrs r17, 7
00001e cffc                      		rjmp RX_clear
                                 
00001f 9100 0820                 	lds r16, USART1_RXDATAL
000021 9309                      	st Y+, r16
                                 
                                 	RX_complete:
000022 300a                      		cpi r16, 0x0A
000023 f009                      		breq TX_clear
000024 cff6                      		rjmp RX_clear
                                 
                                 	TX_clear:
000025 9110 0864                 		lds r17, USART3_STATUS
000027 ff15                      		sbrs r17, 5
000028 cffc                      		rjmp TX_clear
                                 
000029 e0c0                      	ldi YL, low(message)
00002a e4d0                      	ldi YH, high(message)
                                 
00002b 9109                      	ld r16, Y+
00002c 9300 0862                 	sts USART3_TXDATAL, r16
                                 	
                                 	TX_complete:
00002e 300a                      		cpi r16, 0x0A
00002f f349                      		breq main
000030 cff4                      		rjmp TX_clear
                                 


RESOURCE USE INFORMATION
------------------------

Notice:
The register and instruction counts are symbol table hit counts,
and hence implicitly used resources are not counted, eg, the
'lpm' instruction without operands implicitly uses r0 and z,
none of which are counted.

x,y,z are separate entities in the symbol table and are
counted separately from r26..r31 here.

.dseg memory usage only counts static data declared with .byte

"AVR128DB48" register use summary:
x  :   0 y  :   2 z  :   0 r0 :   0 r1 :   0 r2 :   0 r3 :   0 r4 :   0 
r5 :   0 r6 :   0 r7 :   0 r8 :   0 r9 :   0 r10:   0 r11:   0 r12:   0 
r13:   0 r14:   0 r15:   0 r16:  21 r17:   4 r18:   0 r19:   0 r20:   0 
r21:   0 r22:   0 r23:   0 r24:   0 r25:   0 r26:   0 r27:   0 r28:   2 
r29:   2 r30:   0 r31:   0 
Registers used: 5 out of 35 (14.3%)

"AVR128DB48" instruction use summary:
.lds  :   0 .sts  :   0 adc   :   0 add   :   0 adiw  :   0 and   :   0 
andi  :   0 asr   :   0 bclr  :   0 bld   :   0 brbc  :   0 brbs  :   0 
brcc  :   0 brcs  :   0 break :   0 breq  :   2 brge  :   0 brhc  :   0 
brhs  :   0 brid  :   0 brie  :   0 brlo  :   0 brlt  :   0 brmi  :   0 
brne  :   0 brpl  :   0 brsh  :   0 brtc  :   0 brts  :   0 brvc  :   0 
brvs  :   0 bset  :   0 bst   :   0 call  :   0 cbi   :   1 cbr   :   0 
clc   :   0 clh   :   0 cli   :   0 cln   :   0 clr   :   0 cls   :   0 
clt   :   0 clv   :   0 clz   :   0 com   :   0 cp    :   0 cpc   :   0 
cpi   :   2 cpse  :   0 dec   :   0 elpm  :   0 eor   :   0 fmul  :   0 
fmuls :   0 fmulsu:   0 icall :   0 ijmp  :   0 in    :   0 inc   :   0 
jmp   :   0 ld    :   1 ldd   :   0 ldi   :  11 lds   :   3 lpm   :   0 
lsl   :   0 lsr   :   0 mov   :   0 movw  :   0 mul   :   0 muls  :   0 
mulsu :   0 neg   :   0 nop   :   0 or    :   0 ori   :   0 out   :   0 
pop   :   0 push  :   0 rcall :   0 ret   :   0 reti  :   0 rjmp  :   5 
rol   :   0 ror   :   0 sbc   :   0 sbci  :   0 sbi   :   1 sbic  :   0 
sbis  :   0 sbiw  :   0 sbr   :   0 sbrc  :   0 sbrs  :   2 sec   :   0 
seh   :   0 sei   :   0 sen   :   0 ser   :   0 ses   :   0 set   :   0 
sev   :   0 sez   :   0 sleep :   0 spm   :   0 st    :   1 std   :   0 
sts   :   9 sub   :   0 subi  :   0 swap  :   0 tst   :   0 wdr   :   0 

Instructions used: 11 out of 114 (9.6%)

"AVR128DB48" memory use summary [bytes]:
Segment   Begin    End      Code   Data   Used    Size   Use%
---------------------------------------------------------------
[.cseg] 0x000000 0x000064    100      0    100  131072   0.1%
[.dseg] 0x004000 0x004040      0     64     64   16384   0.4%
[.eseg] 0x000000 0x000000      0      0      0     512   0.0%

Assembly complete, 0 errors, 0 warnings
